target datalayout = "e-m:e-p270:32:32-p271:32:32-p272:64:64-i64:64-i128:128-f80:128-n8:16:32:64-S128"
target triple = "x86_64-pc-linux-gnu"

%struct.nstime_t = type { i64, i32 }
%struct._packet_info = type { ptr, ptr, i32, i32, %struct.nstime_t, %struct.nstime_t, %struct.nstime_t, i8, ptr, ptr, ptr, ptr, %struct._address, %struct._address, %struct._address, %struct._address, %struct._address, %struct._address, i32, ptr, i8, [3 x i8], %struct.anon.1, i32, i32, i32, i32, ptr, i8, ptr, ptr, i16, i16, i32, i32, i16, i32, i32, ptr, ptr, ptr, i8, i8, i16, i16, i16, i32, i16, i16, ptr, ptr, ptr, ptr, ptr, i32, i32 }
%struct._address = type { i32, i32, ptr, ptr }
%struct.anon.1 = type { i8, [3 x i8] }
%struct._asn1_ctx_t = type { i32, i32, i8, ptr, ptr, ptr, ptr, ptr, %struct.anon.2, %struct.anon.5, %struct.anon.6, ptr }
%struct.anon.2 = type { i32, i8, i8, i8, ptr, ptr, i32, i32, ptr, ptr, ptr, %union.anon }
%union.anon = type { %struct.anon.3 }
%struct.anon.3 = type { ptr }
%struct.anon.5 = type { ptr, ptr, ptr }
%struct.anon.6 = type { i32, i8, ptr, i32, i32, ptr, ptr, ptr, %union.anon.7 }
%union.anon.7 = type { %struct.anon.8 }
%struct.anon.8 = type { ptr }

@ett_ldap_SubstringFilter = internal global i32 0, align 4
@attr_type = internal global ptr null, align 8
@Filter_string = internal global ptr null, align 8
@substring_item_any = internal global ptr null, align 8
@substring_item_final = internal global ptr null, align 8
@substring_item_init = internal global ptr null, align 8
@substring_value = internal global ptr null, align 8
@.str.891 = private unnamed_addr constant [3 x i8] c"%s\00", align 1
@.str.892 = private unnamed_addr constant [7 x i8] c"[NULL]\00", align 1
@.str.901 = private unnamed_addr constant [8 x i8] c"(%s=%s)\00", align 1
@.str.909 = private unnamed_addr constant [12 x i8] c"substring: \00", align 1

; Function Attrs: null_pointer_is_valid sspstrong uwtable
define internal i32 @dissect_ldap_SubstringFilter(i1 noundef zeroext %0, ptr noundef %1, i32 noundef %2, ptr noundef %3, ptr noundef %4, i32 noundef %5) #0 {
  %7 = alloca i8, align 1
  %8 = alloca ptr, align 8
  %9 = alloca i32, align 4
  %10 = alloca ptr, align 8
  %11 = alloca ptr, align 8
  %12 = alloca i32, align 4
  %13 = alloca ptr, align 8
  %14 = alloca ptr, align 8
  %15 = alloca ptr, align 8
  %16 = zext i1 %0 to i8
  store i8 %16, ptr %7, align 1
  store ptr %1, ptr %8, align 8
  store i32 %2, ptr %9, align 4
  store ptr %3, ptr %10, align 8
  store ptr %4, ptr %11, align 8
  store i32 %5, ptr %12, align 4
  call void @llvm.lifetime.start.p0(i64 8, ptr %13) #16
  call void @llvm.lifetime.start.p0(i64 8, ptr %14) #16
  call void @llvm.lifetime.start.p0(i64 8, ptr %15) #16
  %17 = load ptr, ptr @substring_value, align 8
  store ptr %17, ptr %15, align 8
  store ptr null, ptr @attr_type, align 8
  store ptr null, ptr @substring_value, align 8
  store ptr null, ptr @substring_item_init, align 8
  store ptr null, ptr @substring_item_any, align 8
  store ptr null, ptr @substring_item_final, align 8
  %18 = load ptr, ptr %11, align 8
  %19 = load ptr, ptr %8, align 8
  %20 = load i32, ptr %9, align 4
  %21 = load i32, ptr @ett_ldap_SubstringFilter, align 4
  %22 = call ptr @proto_tree_add_subtree(ptr noundef %18, ptr noundef %19, i32 noundef %20, i32 noundef -1, i32 noundef %21, ptr noundef %14, ptr noundef @.str.909)
  store ptr %22, ptr %13, align 8
  %23 = load ptr, ptr %13, align 8
  store ptr %23, ptr %11, align 8
  %24 = load i8, ptr %7, align 1, !range !6, !noundef !7
  %25 = trunc i8 %24 to i1
  %26 = load ptr, ptr %10, align 8
  %27 = load ptr, ptr %11, align 8
  %28 = load ptr, ptr %8, align 8
  %29 = load i32, ptr %9, align 4
  %30 = load i32, ptr %12, align 4
  %31 = load i32, ptr @ett_ldap_SubstringFilter, align 4
  %32 = call i32 @dissect_ber_sequence(i1 noundef zeroext %25, ptr noundef %26, ptr noundef %27, ptr noundef %28, i32 noundef %29, ptr noundef @SubstringFilter_sequence, i32 noundef %30, i32 noundef %31)
  store i32 %32, ptr %9, align 4
  %33 = load ptr, ptr %10, align 8
  %34 = getelementptr inbounds nuw %struct._asn1_ctx_t, ptr %33, i32 0, i32 3
  %35 = load ptr, ptr %34, align 8
  %36 = getelementptr inbounds nuw %struct._packet_info, ptr %35, i32 0, i32 51
  %37 = load ptr, ptr %36, align 8
  %38 = load ptr, ptr @attr_type, align 8
  %39 = icmp ne ptr %38, null
  br i1 %39, label %40, label %42

40:                                               ; preds = %6
  %41 = load ptr, ptr @attr_type, align 8
  br label %43

42:                                               ; preds = %6
  br label %43

43:                                               ; preds = %42, %40
  %44 = phi ptr [ %41, %40 ], [ @.str.892, %42 ]
  %45 = load ptr, ptr @substring_value, align 8
  %46 = icmp ne ptr %45, null
  br i1 %46, label %47, label %49

47:                                               ; preds = %43
  %48 = load ptr, ptr @substring_value, align 8
  br label %50

49:                                               ; preds = %43
  br label %50

50:                                               ; preds = %49, %47
  %51 = phi ptr [ %48, %47 ], [ @.str.892, %49 ]
  %52 = call noalias ptr (ptr, ptr, ...) @wmem_strdup_printf(ptr noundef %37, ptr noundef @.str.901, ptr noundef %44, ptr noundef %51)
  store ptr %52, ptr @Filter_string, align 8
  %53 = load ptr, ptr %14, align 8
  %54 = load ptr, ptr @Filter_string, align 8
  call void (ptr, ptr, ...) @proto_item_append_text(ptr noundef %53, ptr noundef @.str.891, ptr noundef %54)
  %55 = load ptr, ptr %15, align 8
  store ptr %55, ptr @substring_value, align 8
  %56 = load i32, ptr %9, align 4
  call void @llvm.lifetime.end.p0(i64 8, ptr %15) #16
  call void @llvm.lifetime.end.p0(i64 8, ptr %14) #16
  call void @llvm.lifetime.end.p0(i64 8, ptr %13) #16
  ret i32 %56
}