; Function Attrs: null_pointer_is_valid sspstrong uwtable
define internal i32 @dissect_ldap_SubstringFilter(i1 noundef zeroext %0, ptr noundef %1, i32 noundef %2, ptr noundef %3, ptr noundef %4, i32 noundef %5) #0 {
  %7 = alloca ptr, align 8
  call void @llvm.lifetime.start.p0(i64 8, ptr nonnull %7) #14
  %8 = load ptr, ptr @substring_value, align 8
  store ptr null, ptr @attr_type, align 8
  store ptr null, ptr @substring_value, align 8
  store ptr null, ptr @substring_item_init, align 8
  store ptr null, ptr @substring_item_any, align 8
  store ptr null, ptr @substring_item_final, align 8
  %9 = load i32, ptr @ett_ldap_SubstringFilter, align 4
  %10 = call ptr @proto_tree_add_subtree(ptr noundef %4, ptr noundef %1, i32 noundef %2, i32 noundef -1, i32 noundef %9, ptr noundef nonnull %7, ptr noundef nonnull @.str.909)
  %11 = load i32, ptr @ett_ldap_SubstringFilter, align 4
  %12 = call i32 @dissect_ber_sequence(i1 noundef zeroext %0, ptr noundef %3, ptr noundef %10, ptr noundef %1, i32 noundef %2, ptr noundef nonnull @SubstringFilter_sequence, i32 noundef %5, i32 noundef %11)
  %13 = getelementptr inbounds nuw i8, ptr %3, i64 16
  %14 = load ptr, ptr %13, align 8
  %15 = getelementptr inbounds nuw i8, ptr %14, i64 408
  %16 = load ptr, ptr %15, align 8
  %17 = load ptr, ptr @attr_type, align 8
  %.not = icmp eq ptr %17, null
  %18 = select i1 %.not, ptr @.str.892, ptr %17
  %19 = load ptr, ptr @substring_value, align 8
  %.not12 = icmp eq ptr %19, null
  %20 = select i1 %.not12, ptr @.str.892, ptr %19
  %21 = call noalias ptr (ptr, ptr, ...) @wmem_strdup_printf(ptr noundef %16, ptr noundef nonnull @.str.901, ptr noundef nonnull %18, ptr noundef nonnull %20)
  store ptr %21, ptr @Filter_string, align 8
  %22 = load ptr, ptr %7, align 8
  call void (ptr, ptr, ...) @proto_item_append_text(ptr noundef %22, ptr noundef nonnull @.str.891, ptr noundef %21)
  store ptr %8, ptr @substring_value, align 8
  call void @llvm.lifetime.end.p0(i64 8, ptr nonnull %7) #14
  ret i32 %12
}